; Function Attrs: nounwind uwtable
define dso_local void @mdclose(ptr noundef captures(none) %0, i32 noundef %1) local_unnamed_addr #0 {
  %3 = getelementptr inbounds nuw i8, ptr %0, i64 40
  %4 = sext i32 %1 to i64
  %5 = getelementptr inbounds [4 x i32], ptr %3, i64 0, i64 %4
  %6 = load i32, ptr %5, align 4
  %7 = icmp sgt i32 %6, 0
  br i1 %7, label %.lr.ph, label %.loopexit

.lr.ph:                                           ; preds = %2
  %8 = getelementptr inbounds nuw i8, ptr %0, i64 56
  %9 = getelementptr inbounds [4 x ptr], ptr %8, i64 0, i64 %4
  %10 = zext nneg i32 %6 to i64
  %11 = load ptr, ptr %9, align 8
  %indvars.iv.next14 = add nsw i64 %10, -1
  %12 = getelementptr inbounds nuw %struct._MdfdVec, ptr %11, i64 %indvars.iv.next14
  %13 = load i32, ptr %12, align 4
  tail call void @FileClose(i32 noundef %13) #15
  %14 = icmp eq i64 %indvars.iv.next14, 0
  %15 = load i32, ptr %5, align 4
  br i1 %14, label %._crit_edge, label %.lr.ph16

._crit_edge:                                      ; preds = %_fdvec_resize.exit, %.lr.ph
  %.lcssa = phi i32 [ %15, %.lr.ph ], [ %37, %_fdvec_resize.exit ]
  %16 = icmp sgt i32 %.lcssa, 0
  br i1 %16, label %17, label %.loopexit.loopexit

17:                                               ; preds = %._crit_edge
  %18 = load ptr, ptr %9, align 8
  tail call void @pfree(ptr noundef %18) #15
  store ptr null, ptr %9, align 8
  br label %.loopexit.loopexit

.lr.ph16:                                         ; preds = %.lr.ph, %_fdvec_resize.exit
  %19 = phi i32 [ %37, %_fdvec_resize.exit ], [ %15, %.lr.ph ]
  %indvars.iv.next15 = phi i64 [ %indvars.iv.next, %_fdvec_resize.exit ], [ %indvars.iv.next14, %.lr.ph ]
  %20 = icmp eq i32 %19, 0
  br i1 %20, label %21, label %25

21:                                               ; preds = %.lr.ph16
  %22 = load ptr, ptr @MdCxt, align 8
  %23 = shl nuw nsw i64 %indvars.iv.next15, 3
  %24 = tail call ptr @MemoryContextAlloc(ptr noundef %22, i64 noundef %23) #15
  br label %_fdvec_resize.exit.sink.split

25:                                               ; preds = %.lr.ph16
  %26 = sext i32 %19 to i64
  %27 = icmp sgt i64 %indvars.iv.next15, %26
  br i1 %27, label %28, label %_fdvec_resize.exit

28:                                               ; preds = %25
  %29 = load ptr, ptr %9, align 8
  %30 = shl nuw nsw i64 %indvars.iv.next15, 3
  %31 = tail call ptr @repalloc(ptr noundef %29, i64 noundef %30) #15
  br label %_fdvec_resize.exit.sink.split

_fdvec_resize.exit.sink.split:                    ; preds = %28, %21
  %.sink = phi ptr [ %24, %21 ], [ %31, %28 ]
  store ptr %.sink, ptr %9, align 8
  br label %_fdvec_resize.exit

_fdvec_resize.exit:                               ; preds = %_fdvec_resize.exit.sink.split, %25
  %32 = trunc nuw nsw i64 %indvars.iv.next15 to i32
  store i32 %32, ptr %5, align 4
  %33 = load ptr, ptr %9, align 8
  %indvars.iv.next = add nsw i64 %indvars.iv.next15, -1
  %34 = getelementptr inbounds nuw %struct._MdfdVec, ptr %33, i64 %indvars.iv.next
  %35 = load i32, ptr %34, align 4
  tail call void @FileClose(i32 noundef %35) #15
  %36 = icmp eq i64 %indvars.iv.next, 0
  %37 = load i32, ptr %5, align 4
  br i1 %36, label %._crit_edge, label %.lr.ph16, !llvm.loop !6

.loopexit.loopexit:                               ; preds = %._crit_edge, %17
  store i32 0, ptr %5, align 4
  br label %.loopexit

.loopexit:                                        ; preds = %.loopexit.loopexit, %2
  ret void
}